target datalayout = "e-m:e-p270:32:32-p271:32:32-p272:64:64-i64:64-i128:128-f80:128-n8:16:32:64-S128"
target triple = "x86_64-pc-linux-gnu"

%"class.cvc5::internal::theory::Valuation" = type { ptr }
%"class.cvc5::internal::theory::TheoryState" = type { %"class.cvc5::internal::EnvObj", %"class.cvc5::internal::theory::Valuation", ptr, %"class.cvc5::context::CDO", %"class.cvc5::context::CDList" }
%"class.cvc5::internal::EnvObj" = type { ptr, ptr }
%"class.cvc5::context::CDO" = type <{ %"class.cvc5::context::ContextObj", i8, [7 x i8] }>
%"class.cvc5::context::ContextObj" = type { ptr, ptr, ptr, ptr, ptr }
%"class.cvc5::context::CDList" = type <{ %"class.cvc5::context::ContextObj", %"class.std::vector", i64, i8, [7 x i8] }>
%"class.std::vector" = type { %"struct.std::_Vector_base" }
%"struct.std::_Vector_base" = type { %"struct.std::_Vector_base<cvc5::internal::NodeTemplate<false>, std::allocator<cvc5::internal::NodeTemplate<false>>>::_Vector_impl" }
%"struct.std::_Vector_base<cvc5::internal::NodeTemplate<false>, std::allocator<cvc5::internal::NodeTemplate<false>>>::_Vector_impl" = type { %"struct.std::_Vector_base<cvc5::internal::NodeTemplate<false>, std::allocator<cvc5::internal::NodeTemplate<false>>>::_Vector_impl_data" }
%"struct.std::_Vector_base<cvc5::internal::NodeTemplate<false>, std::allocator<cvc5::internal::NodeTemplate<false>>>::_Vector_impl_data" = type { ptr, ptr, ptr }
%"class.cvc5::internal::NodeTemplate" = type { ptr }

; Function Attrs: inlinehint mustprogress nounwind uwtable
define linkonce_odr hidden void @_ZNK4cvc58internal12NodeTemplateILb0EE21assertTNodeNotExpiredEv(ptr noundef nonnull align 8 dereferenceable(8) %0) #9 comdat align 2 {
  %2 = alloca ptr, align 8
  store ptr %0, ptr %2, align 8, !tbaa !53
  ret void
}

; Function Attrs: mustprogress nounwind uwtable
define linkonce_odr hidden noundef zeroext i1 @_ZNK4cvc58internal12NodeTemplateILb0EEneILb0EEEbRKNS1_IXT_EEE(ptr noundef nonnull align 8 dereferenceable(8) %0, ptr noundef nonnull align 8 dereferenceable(8) %1) #7 comdat align 2 {
  %3 = alloca ptr, align 8
  %4 = alloca ptr, align 8
  store ptr %0, ptr %3, align 8, !tbaa !53
  store ptr %1, ptr %4, align 8, !tbaa !53
  %5 = load ptr, ptr %3, align 8
  call void @_ZNK4cvc58internal12NodeTemplateILb0EE21assertTNodeNotExpiredEv(ptr noundef nonnull align 8 dereferenceable(8) %5)
  %6 = load ptr, ptr %4, align 8, !tbaa !53
  call void @_ZNK4cvc58internal12NodeTemplateILb0EE21assertTNodeNotExpiredEv(ptr noundef nonnull align 8 dereferenceable(8) %6)
  %7 = getelementptr inbounds nuw %"class.cvc5::internal::NodeTemplate", ptr %5, i32 0, i32 0
  %8 = load ptr, ptr %7, align 8, !tbaa !54
  %9 = load ptr, ptr %4, align 8, !tbaa !53
  %10 = getelementptr inbounds nuw %"class.cvc5::internal::NodeTemplate", ptr %9, i32 0, i32 0
  %11 = load ptr, ptr %10, align 8, !tbaa !54
  %12 = icmp ne ptr %8, %11
  ret i1 %12
}

; Function Attrs: mustprogress nounwind uwtable
define linkonce_odr hidden noundef nonnull align 8 dereferenceable(8) ptr @_ZN4cvc58internal12NodeTemplateILb0EEaSERKS2_(ptr noundef nonnull align 8 dereferenceable(8) %0, ptr noundef nonnull align 8 dereferenceable(8) %1) #7 comdat align 2 {
  %3 = alloca ptr, align 8
  %4 = alloca ptr, align 8
  store ptr %0, ptr %3, align 8, !tbaa !53
  store ptr %1, ptr %4, align 8, !tbaa !53
  %5 = load ptr, ptr %3, align 8
  %6 = getelementptr inbounds nuw %"class.cvc5::internal::NodeTemplate", ptr %5, i32 0, i32 0
  %7 = load ptr, ptr %6, align 8, !tbaa !54
  %8 = load ptr, ptr %4, align 8, !tbaa !53
  %9 = getelementptr inbounds nuw %"class.cvc5::internal::NodeTemplate", ptr %8, i32 0, i32 0
  %10 = load ptr, ptr %9, align 8, !tbaa !54
  %11 = icmp ne ptr %7, %10
  %12 = zext i1 %11 to i64
  %13 = call i64 @llvm.expect.i64(i64 %12, i64 1)
  %14 = icmp ne i64 %13, 0
  br i1 %14, label %15, label %20

15:                                               ; preds = %2
  %16 = load ptr, ptr %4, align 8, !tbaa !53
  %17 = getelementptr inbounds nuw %"class.cvc5::internal::NodeTemplate", ptr %16, i32 0, i32 0
  %18 = load ptr, ptr %17, align 8, !tbaa !54
  %19 = getelementptr inbounds nuw %"class.cvc5::internal::NodeTemplate", ptr %5, i32 0, i32 0
  store ptr %18, ptr %19, align 8, !tbaa !54
  br label %20

20:                                               ; preds = %15, %2
  ret ptr %5
}

; Function Attrs: mustprogress nounwind uwtable
define linkonce_odr hidden void @_ZN4cvc58internal12NodeTemplateILb0EED2Ev(ptr noundef nonnull align 8 dereferenceable(8) %0) unnamed_addr #7 comdat align 2 {
  %2 = alloca ptr, align 8
  store ptr %0, ptr %2, align 8, !tbaa !53
  ret void
}

; Function Attrs: mustprogress nounwind uwtable
define linkonce_odr hidden void @_ZN4cvc58internal12NodeTemplateILb0EEC2ERKS2_(ptr noundef nonnull align 8 dereferenceable(8) %0, ptr noundef nonnull align 8 dereferenceable(8) %1) unnamed_addr #7 comdat align 2 {
  %3 = alloca ptr, align 8
  %4 = alloca ptr, align 8
  store ptr %0, ptr %3, align 8, !tbaa !53
  store ptr %1, ptr %4, align 8, !tbaa !53
  %5 = load ptr, ptr %3, align 8
  %6 = load ptr, ptr %4, align 8, !tbaa !53
  %7 = getelementptr inbounds nuw %"class.cvc5::internal::NodeTemplate", ptr %6, i32 0, i32 0
  %8 = load ptr, ptr %7, align 8, !tbaa !54
  %9 = getelementptr inbounds nuw %"class.cvc5::internal::NodeTemplate", ptr %5, i32 0, i32 0
  store ptr %8, ptr %9, align 8, !tbaa !54
  ret void
}

; Function Attrs: mustprogress uwtable
define linkonce_odr hidden noundef zeroext i1 @_ZNK4cvc58internal12NodeTemplateILb0EEeqILb0EEEbRKNS1_IXT_EEE(ptr noundef nonnull align 8 dereferenceable(8) %0, ptr noundef nonnull align 8 dereferenceable(8) %1) #4 comdat align 2 {
  %3 = alloca ptr, align 8
  %4 = alloca ptr, align 8
  store ptr %0, ptr %3, align 8, !tbaa !53
  store ptr %1, ptr %4, align 8, !tbaa !53
  %5 = load ptr, ptr %3, align 8
  call void @_ZNK4cvc58internal12NodeTemplateILb0EE21assertTNodeNotExpiredEv(ptr noundef nonnull align 8 dereferenceable(8) %5)
  %6 = load ptr, ptr %4, align 8, !tbaa !53
  call void @_ZNK4cvc58internal12NodeTemplateILb0EE21assertTNodeNotExpiredEv(ptr noundef nonnull align 8 dereferenceable(8) %6)
  %7 = getelementptr inbounds nuw %"class.cvc5::internal::NodeTemplate", ptr %5, i32 0, i32 0
  %8 = load ptr, ptr %7, align 8, !tbaa !54
  %9 = load ptr, ptr %4, align 8, !tbaa !53
  %10 = getelementptr inbounds nuw %"class.cvc5::internal::NodeTemplate", ptr %9, i32 0, i32 0
  %11 = load ptr, ptr %10, align 8, !tbaa !54
  %12 = icmp eq ptr %8, %11
  ret i1 %12
}

; Function Attrs: mustprogress uwtable
define hidden noundef zeroext i1 @_ZNK4cvc58internal6theory11TheoryState11areDisequalENS0_12NodeTemplateILb0EEES4_(ptr noundef nonnull align 8 dereferenceable(160) %0, ptr noundef %1, ptr noundef %2) unnamed_addr #4 align 2 personality ptr @__gxx_personality_v0 {
  %4 = alloca i1, align 1
  %5 = alloca ptr, align 8
  %6 = alloca ptr, align 8
  %7 = alloca ptr, align 8
  %8 = alloca i8, align 1
  %9 = alloca i8, align 1
  %10 = alloca %"class.cvc5::internal::NodeTemplate", align 8
  %11 = alloca ptr, align 8
  %12 = alloca i32, align 4
  %13 = alloca %"class.cvc5::internal::NodeTemplate", align 8
  %14 = alloca %"class.cvc5::internal::NodeTemplate", align 8
  %15 = alloca i32, align 4
  %16 = alloca %"class.cvc5::internal::NodeTemplate", align 8
  %17 = alloca %"class.cvc5::internal::NodeTemplate", align 8
  %18 = alloca %"class.cvc5::internal::NodeTemplate", align 8
  %19 = alloca %"class.cvc5::internal::NodeTemplate", align 8
  %20 = alloca %"class.cvc5::internal::NodeTemplate", align 8
  store ptr %0, ptr %5, align 8, !tbaa !3
  store ptr %1, ptr %6, align 8, !tbaa !53
  store ptr %2, ptr %7, align 8, !tbaa !53
  %21 = load ptr, ptr %5, align 8
  %22 = call noundef zeroext i1 @_ZNK4cvc58internal12NodeTemplateILb0EEeqILb0EEEbRKNS1_IXT_EEE(ptr noundef nonnull align 8 dereferenceable(8) %1, ptr noundef nonnull align 8 dereferenceable(8) %2)
  br i1 %22, label %23, label %24

23:                                               ; preds = %3
  store i1 false, ptr %4, align 1
  br label %120

24:                                               ; preds = %3
  call void @llvm.lifetime.start.p0(i64 1, ptr %8) #3
  store i8 1, ptr %8, align 1, !tbaa !34
  call void @llvm.lifetime.start.p0(i64 1, ptr %9) #3
  store i8 1, ptr %9, align 1, !tbaa !34
  call void @_ZN4cvc58internal12NodeTemplateILb0EEC2ERKS2_(ptr noundef nonnull align 8 dereferenceable(8) %10, ptr noundef nonnull align 8 dereferenceable(8) %1)
  %25 = load ptr, ptr %21, align 8, !tbaa !10
  %26 = getelementptr inbounds ptr, ptr %25, i64 2
  %27 = load ptr, ptr %26, align 8
  %28 = invoke noundef zeroext i1 %27(ptr noundef nonnull align 8 dereferenceable(160) %21, ptr noundef %10)
          to label %29 unwind label %38

29:                                               ; preds = %24
  call void @_ZN4cvc58internal12NodeTemplateILb0EED2Ev(ptr noundef nonnull align 8 dereferenceable(8) %10) #3
  br i1 %28, label %30, label %51

30:                                               ; preds = %29
  call void @llvm.lifetime.start.p0(i64 8, ptr %13) #3
  %31 = getelementptr inbounds nuw %"class.cvc5::internal::theory::TheoryState", ptr %21, i32 0, i32 2
  %32 = load ptr, ptr %31, align 8, !tbaa !15
  call void @_ZN4cvc58internal12NodeTemplateILb0EEC2ERKS2_(ptr noundef nonnull align 8 dereferenceable(8) %14, ptr noundef nonnull align 8 dereferenceable(8) %1)
  invoke void @_ZNK4cvc58internal6theory2eq14EqualityEngine17getRepresentativeENS0_12NodeTemplateILb0EEE(ptr dead_on_unwind writable sret(%"class.cvc5::internal::NodeTemplate") align 8 %13, ptr noundef nonnull align 8 dereferenceable(1784) %32, ptr noundef %14)
          to label %33 unwind label %42

33:                                               ; preds = %30
  %34 = invoke noundef nonnull align 8 dereferenceable(8) ptr @_ZN4cvc58internal12NodeTemplateILb0EEaSERKS2_(ptr noundef nonnull align 8 dereferenceable(8) %1, ptr noundef nonnull align 8 dereferenceable(8) %13)
          to label %35 unwind label %46

35:                                               ; preds = %33
  call void @_ZN4cvc58internal12NodeTemplateILb0EED2Ev(ptr noundef nonnull align 8 dereferenceable(8) %13) #3
  call void @_ZN4cvc58internal12NodeTemplateILb0EED2Ev(ptr noundef nonnull align 8 dereferenceable(8) %14) #3
  call void @llvm.lifetime.end.p0(i64 8, ptr %13) #3
  %36 = call noundef zeroext i1 @_ZNK4cvc58internal12NodeTemplateILb0EE7isConstEv(ptr noundef nonnull align 8 dereferenceable(8) %1)
  %37 = zext i1 %36 to i8
  store i8 %37, ptr %8, align 1, !tbaa !34
  br label %56

38:                                               ; preds = %24
  %39 = landingpad { ptr, i32 }
          cleanup
  %40 = extractvalue { ptr, i32 } %39, 0
  store ptr %40, ptr %11, align 8
  %41 = extractvalue { ptr, i32 } %39, 1
  store i32 %41, ptr %12, align 4
  call void @_ZN4cvc58internal12NodeTemplateILb0EED2Ev(ptr noundef nonnull align 8 dereferenceable(8) %10) #3
  br label %119

42:                                               ; preds = %30
  %43 = landingpad { ptr, i32 }
          cleanup
  %44 = extractvalue { ptr, i32 } %43, 0
  store ptr %44, ptr %11, align 8
  %45 = extractvalue { ptr, i32 } %43, 1
  store i32 %45, ptr %12, align 4
  br label %50

46:                                               ; preds = %33
  %47 = landingpad { ptr, i32 }
          cleanup
  %48 = extractvalue { ptr, i32 } %47, 0
  store ptr %48, ptr %11, align 8
  %49 = extractvalue { ptr, i32 } %47, 1
  store i32 %49, ptr %12, align 4
  call void @_ZN4cvc58internal12NodeTemplateILb0EED2Ev(ptr noundef nonnull align 8 dereferenceable(8) %13) #3
  br label %50

50:                                               ; preds = %46, %42
  call void @_ZN4cvc58internal12NodeTemplateILb0EED2Ev(ptr noundef nonnull align 8 dereferenceable(8) %14) #3
  call void @llvm.lifetime.end.p0(i64 8, ptr %13) #3
  br label %119

51:                                               ; preds = %29
  %52 = call noundef zeroext i1 @_ZNK4cvc58internal12NodeTemplateILb0EE7isConstEv(ptr noundef nonnull align 8 dereferenceable(8) %1)
  br i1 %52, label %54, label %53

53:                                               ; preds = %51
  store i1 false, ptr %4, align 1
  store i32 1, ptr %15, align 4
  br label %118

54:                                               ; preds = %51
  store i8 0, ptr %9, align 1, !tbaa !34
  br label %55

55:                                               ; preds = %54
  br label %56

56:                                               ; preds = %55, %35
  call void @_ZN4cvc58internal12NodeTemplateILb0EEC2ERKS2_(ptr noundef nonnull align 8 dereferenceable(8) %16, ptr noundef nonnull align 8 dereferenceable(8) %2)
  %57 = load ptr, ptr %21, align 8, !tbaa !10
  %58 = getelementptr inbounds ptr, ptr %57, i64 2
  %59 = load ptr, ptr %58, align 8
  %60 = invoke noundef zeroext i1 %59(ptr noundef nonnull align 8 dereferenceable(160) %21, ptr noundef %16)
          to label %61 unwind label %75

61:                                               ; preds = %56
  call void @_ZN4cvc58internal12NodeTemplateILb0EED2Ev(ptr noundef nonnull align 8 dereferenceable(8) %16) #3
  br i1 %60, label %62, label %88

62:                                               ; preds = %61
  call void @llvm.lifetime.start.p0(i64 8, ptr %17) #3
  %63 = getelementptr inbounds nuw %"class.cvc5::internal::theory::TheoryState", ptr %21, i32 0, i32 2
  %64 = load ptr, ptr %63, align 8, !tbaa !15
  call void @_ZN4cvc58internal12NodeTemplateILb0EEC2ERKS2_(ptr noundef nonnull align 8 dereferenceable(8) %18, ptr noundef nonnull align 8 dereferenceable(8) %2)
  invoke void @_ZNK4cvc58internal6theory2eq14EqualityEngine17getRepresentativeENS0_12NodeTemplateILb0EEE(ptr dead_on_unwind writable sret(%"class.cvc5::internal::NodeTemplate") align 8 %17, ptr noundef nonnull align 8 dereferenceable(1784) %64, ptr noundef %18)
          to label %65 unwind label %79

65:                                               ; preds = %62
  %66 = invoke noundef nonnull align 8 dereferenceable(8) ptr @_ZN4cvc58internal12NodeTemplateILb0EEaSERKS2_(ptr noundef nonnull align 8 dereferenceable(8) %2, ptr noundef nonnull align 8 dereferenceable(8) %17)
          to label %67 unwind label %83

67:                                               ; preds = %65
  call void @_ZN4cvc58internal12NodeTemplateILb0EED2Ev(ptr noundef nonnull align 8 dereferenceable(8) %17) #3
  call void @_ZN4cvc58internal12NodeTemplateILb0EED2Ev(ptr noundef nonnull align 8 dereferenceable(8) %18) #3
  call void @llvm.lifetime.end.p0(i64 8, ptr %17) #3
  %68 = load i8, ptr %8, align 1, !tbaa !34, !range !42, !noundef !43
  %69 = trunc i8 %68 to i1
  br i1 %69, label %70, label %72

70:                                               ; preds = %67
  %71 = call noundef zeroext i1 @_ZNK4cvc58internal12NodeTemplateILb0EE7isConstEv(ptr noundef nonnull align 8 dereferenceable(8) %2)
  br label %72

72:                                               ; preds = %70, %67
  %73 = phi i1 [ false, %67 ], [ %71, %70 ]
  %74 = zext i1 %73 to i8
  store i8 %74, ptr %8, align 1, !tbaa !34
  br label %93

75:                                               ; preds = %56
  %76 = landingpad { ptr, i32 }
          cleanup
  %77 = extractvalue { ptr, i32 } %76, 0
  store ptr %77, ptr %11, align 8
  %78 = extractvalue { ptr, i32 } %76, 1
  store i32 %78, ptr %12, align 4
  call void @_ZN4cvc58internal12NodeTemplateILb0EED2Ev(ptr noundef nonnull align 8 dereferenceable(8) %16) #3
  br label %119

79:                                               ; preds = %62
  %80 = landingpad { ptr, i32 }
          cleanup
  %81 = extractvalue { ptr, i32 } %80, 0
  store ptr %81, ptr %11, align 8
  %82 = extractvalue { ptr, i32 } %80, 1
  store i32 %82, ptr %12, align 4
  br label %87

83:                                               ; preds = %65
  %84 = landingpad { ptr, i32 }
          cleanup
  %85 = extractvalue { ptr, i32 } %84, 0
  store ptr %85, ptr %11, align 8
  %86 = extractvalue { ptr, i32 } %84, 1
  store i32 %86, ptr %12, align 4
  call void @_ZN4cvc58internal12NodeTemplateILb0EED2Ev(ptr noundef nonnull align 8 dereferenceable(8) %17) #3
  br label %87

87:                                               ; preds = %83, %79
  call void @_ZN4cvc58internal12NodeTemplateILb0EED2Ev(ptr noundef nonnull align 8 dereferenceable(8) %18) #3
  call void @llvm.lifetime.end.p0(i64 8, ptr %17) #3
  br label %119

88:                                               ; preds = %61
  %89 = call noundef zeroext i1 @_ZNK4cvc58internal12NodeTemplateILb0EE7isConstEv(ptr noundef nonnull align 8 dereferenceable(8) %2)
  br i1 %89, label %91, label %90

90:                                               ; preds = %88
  store i1 false, ptr %4, align 1
  store i32 1, ptr %15, align 4
  br label %118

91:                                               ; preds = %88
  store i8 0, ptr %9, align 1, !tbaa !34
  br label %92

92:                                               ; preds = %91
  br label %93

93:                                               ; preds = %92, %72
  %94 = load i8, ptr %8, align 1, !tbaa !34, !range !42, !noundef !43
  %95 = trunc i8 %94 to i1
  br i1 %95, label %96, label %98

96:                                               ; preds = %93
  %97 = call noundef zeroext i1 @_ZNK4cvc58internal12NodeTemplateILb0EEneILb0EEEbRKNS1_IXT_EEE(ptr noundef nonnull align 8 dereferenceable(8) %1, ptr noundef nonnull align 8 dereferenceable(8) %2)
  store i1 %97, ptr %4, align 1
  store i32 1, ptr %15, align 4
  br label %118

98:                                               ; preds = %93
  %99 = load i8, ptr %9, align 1, !tbaa !34, !range !42, !noundef !43
  %100 = trunc i8 %99 to i1
  br i1 %100, label %102, label %101

101:                                              ; preds = %98
  store i1 false, ptr %4, align 1
  store i32 1, ptr %15, align 4
  br label %118

102:                                              ; preds = %98
  br label %103

103:                                              ; preds = %102
  %104 = getelementptr inbounds nuw %"class.cvc5::internal::theory::TheoryState", ptr %21, i32 0, i32 2
  %105 = load ptr, ptr %104, align 8, !tbaa !15
  call void @_ZN4cvc58internal12NodeTemplateILb0EEC2ERKS2_(ptr noundef nonnull align 8 dereferenceable(8) %19, ptr noundef nonnull align 8 dereferenceable(8) %1)
  invoke void @_ZN4cvc58internal12NodeTemplateILb0EEC2ERKS2_(ptr noundef nonnull align 8 dereferenceable(8) %20, ptr noundef nonnull align 8 dereferenceable(8) %2)
          to label %106 unwind label %109

106:                                              ; preds = %103
  %107 = invoke noundef zeroext i1 @_ZNK4cvc58internal6theory2eq14EqualityEngine11areDisequalENS0_12NodeTemplateILb0EEES5_b(ptr noundef nonnull align 8 dereferenceable(1784) %105, ptr noundef %19, ptr noundef %20, i1 noundef zeroext false)
          to label %108 unwind label %113

108:                                              ; preds = %106
  store i1 %107, ptr %4, align 1
  call void @_ZN4cvc58internal12NodeTemplateILb0EED2Ev(ptr noundef nonnull align 8 dereferenceable(8) %20) #3
  call void @_ZN4cvc58internal12NodeTemplateILb0EED2Ev(ptr noundef nonnull align 8 dereferenceable(8) %19) #3
  store i32 1, ptr %15, align 4
  br label %118

109:                                              ; preds = %103
  %110 = landingpad { ptr, i32 }
          cleanup
  %111 = extractvalue { ptr, i32 } %110, 0
  store ptr %111, ptr %11, align 8
  %112 = extractvalue { ptr, i32 } %110, 1
  store i32 %112, ptr %12, align 4
  br label %117

113:                                              ; preds = %106
  %114 = landingpad { ptr, i32 }
          cleanup
  %115 = extractvalue { ptr, i32 } %114, 0
  store ptr %115, ptr %11, align 8
  %116 = extractvalue { ptr, i32 } %114, 1
  store i32 %116, ptr %12, align 4
  call void @_ZN4cvc58internal12NodeTemplateILb0EED2Ev(ptr noundef nonnull align 8 dereferenceable(8) %20) #3
  br label %117

117:                                              ; preds = %113, %109
  call void @_ZN4cvc58internal12NodeTemplateILb0EED2Ev(ptr noundef nonnull align 8 dereferenceable(8) %19) #3
  br label %119

118:                                              ; preds = %108, %101, %96, %90, %53
  call void @llvm.lifetime.end.p0(i64 1, ptr %9) #3
  call void @llvm.lifetime.end.p0(i64 1, ptr %8) #3
  br label %120

119:                                              ; preds = %117, %87, %75, %50, %38
  call void @llvm.lifetime.end.p0(i64 1, ptr %9) #3
  call void @llvm.lifetime.end.p0(i64 1, ptr %8) #3
  br label %122

120:                                              ; preds = %118, %23
  %121 = load i1, ptr %4, align 1
  ret i1 %121

122:                                              ; preds = %119
  %123 = load ptr, ptr %11, align 8
  %124 = load i32, ptr %12, align 4
  %125 = insertvalue { ptr, i32 } poison, ptr %123, 0
  %126 = insertvalue { ptr, i32 } %125, i32 %124, 1
  resume { ptr, i32 } %126
}