; Function Attrs: mustprogress uwtable
define hidden noundef zeroext i1 @_ZNK4cvc58internal6theory11TheoryState11areDisequalENS0_12NodeTemplateILb0EEES4_(ptr noundef nonnull align 8 dereferenceable(160) %0, ptr noundef %1, ptr noundef %2) unnamed_addr #3 align 2 personality ptr @__gxx_personality_v0 {
  %4 = alloca %"class.cvc5::internal::NodeTemplate", align 8
  %5 = alloca %"class.cvc5::internal::NodeTemplate", align 8
  %6 = alloca %"class.cvc5::internal::NodeTemplate", align 8
  %7 = alloca %"class.cvc5::internal::NodeTemplate", align 8
  %8 = alloca %"class.cvc5::internal::NodeTemplate", align 8
  %9 = alloca %"class.cvc5::internal::NodeTemplate", align 8
  %10 = alloca %"class.cvc5::internal::NodeTemplate", align 8
  %11 = alloca %"class.cvc5::internal::NodeTemplate", align 8
  %12 = load ptr, ptr %1, align 8, !tbaa !45
  %13 = load ptr, ptr %2, align 8, !tbaa !45
  %14 = icmp eq ptr %12, %13
  br i1 %14, label %.thread22, label %15

15:                                               ; preds = %3
  store ptr %12, ptr %4, align 8, !tbaa !45
  %16 = load ptr, ptr %0, align 8, !tbaa !3
  %17 = getelementptr inbounds nuw i8, ptr %16, i64 16
  %18 = load ptr, ptr %17, align 8
  %19 = call noundef zeroext i1 %18(ptr noundef nonnull align 8 dereferenceable(160) %0, ptr noundef nonnull %4)
  br i1 %19, label %20, label %28

20:                                               ; preds = %15
  call void @llvm.lifetime.start.p0(i64 8, ptr nonnull %5) #22
  %21 = getelementptr inbounds nuw i8, ptr %0, i64 24
  %22 = load ptr, ptr %21, align 8, !tbaa !10
  %23 = load ptr, ptr %1, align 8, !tbaa !45
  store ptr %23, ptr %6, align 8, !tbaa !45
  call void @_ZNK4cvc58internal6theory2eq14EqualityEngine17getRepresentativeENS0_12NodeTemplateILb0EEE(ptr dead_on_unwind nonnull writable sret(%"class.cvc5::internal::NodeTemplate") align 8 %5, ptr noundef nonnull align 8 dereferenceable(1784) %22, ptr noundef nonnull %6)
  %24 = load ptr, ptr %1, align 8, !tbaa !45
  %25 = load ptr, ptr %5, align 8, !tbaa !45
  %.not.i = icmp eq ptr %24, %25
  br i1 %.not.i, label %_ZN4cvc58internal12NodeTemplateILb0EEaSERKS2_.exit, label %26, !prof !48

26:                                               ; preds = %20
  store ptr %25, ptr %1, align 8, !tbaa !45
  br label %_ZN4cvc58internal12NodeTemplateILb0EEaSERKS2_.exit

_ZN4cvc58internal12NodeTemplateILb0EEaSERKS2_.exit: ; preds = %20, %26
  call void @llvm.lifetime.end.p0(i64 8, ptr nonnull %5) #22
  %27 = call noundef zeroext i1 @_ZNK4cvc58internal12NodeTemplateILb0EE7isConstEv(ptr noundef nonnull align 8 dereferenceable(8) %1)
  br label %30

28:                                               ; preds = %15
  %29 = call noundef zeroext i1 @_ZNK4cvc58internal12NodeTemplateILb0EE7isConstEv(ptr noundef nonnull align 8 dereferenceable(8) %1)
  br i1 %29, label %30, label %.thread22

30:                                               ; preds = %28, %_ZN4cvc58internal12NodeTemplateILb0EEaSERKS2_.exit
  %.08 = phi i1 [ %27, %_ZN4cvc58internal12NodeTemplateILb0EEaSERKS2_.exit ], [ true, %28 ]
  %31 = load ptr, ptr %2, align 8, !tbaa !45
  store ptr %31, ptr %7, align 8, !tbaa !45
  %32 = load ptr, ptr %0, align 8, !tbaa !3
  %33 = getelementptr inbounds nuw i8, ptr %32, i64 16
  %34 = load ptr, ptr %33, align 8
  %35 = call noundef zeroext i1 %34(ptr noundef nonnull align 8 dereferenceable(160) %0, ptr noundef nonnull %7)
  br i1 %35, label %36, label %44

36:                                               ; preds = %30
  call void @llvm.lifetime.start.p0(i64 8, ptr nonnull %8) #22
  %37 = getelementptr inbounds nuw i8, ptr %0, i64 24
  %38 = load ptr, ptr %37, align 8, !tbaa !10
  %39 = load ptr, ptr %2, align 8, !tbaa !45
  store ptr %39, ptr %9, align 8, !tbaa !45
  call void @_ZNK4cvc58internal6theory2eq14EqualityEngine17getRepresentativeENS0_12NodeTemplateILb0EEE(ptr dead_on_unwind nonnull writable sret(%"class.cvc5::internal::NodeTemplate") align 8 %8, ptr noundef nonnull align 8 dereferenceable(1784) %38, ptr noundef nonnull %9)
  %40 = load ptr, ptr %2, align 8, !tbaa !45
  %41 = load ptr, ptr %8, align 8, !tbaa !45
  %.not.i13 = icmp eq ptr %40, %41
  br i1 %.not.i13, label %_ZN4cvc58internal12NodeTemplateILb0EEaSERKS2_.exit14, label %42, !prof !48

42:                                               ; preds = %36
  store ptr %41, ptr %2, align 8, !tbaa !45
  br label %_ZN4cvc58internal12NodeTemplateILb0EEaSERKS2_.exit14

_ZN4cvc58internal12NodeTemplateILb0EEaSERKS2_.exit14: ; preds = %36, %42
  %43 = phi ptr [ %40, %36 ], [ %41, %42 ]
  call void @llvm.lifetime.end.p0(i64 8, ptr nonnull %8) #22
  br i1 %.08, label %46, label %.thread

.thread:                                          ; preds = %_ZN4cvc58internal12NodeTemplateILb0EEaSERKS2_.exit14
  br i1 %19, label %53, label %.thread22

44:                                               ; preds = %30
  %45 = call noundef zeroext i1 @_ZNK4cvc58internal12NodeTemplateILb0EE7isConstEv(ptr noundef nonnull align 8 dereferenceable(8) %2)
  %brmerge.demorgan = and i1 %45, %.08
  br i1 %brmerge.demorgan, label %48, label %.thread22

46:                                               ; preds = %_ZN4cvc58internal12NodeTemplateILb0EEaSERKS2_.exit14
  %47 = call noundef zeroext i1 @_ZNK4cvc58internal12NodeTemplateILb0EE7isConstEv(ptr noundef nonnull align 8 dereferenceable(8) %2)
  br i1 %47, label %48, label %52

48:                                               ; preds = %44, %46
  %49 = load ptr, ptr %1, align 8, !tbaa !45
  %50 = load ptr, ptr %2, align 8, !tbaa !45
  %51 = icmp ne ptr %49, %50
  br label %.thread22

52:                                               ; preds = %46
  br i1 %19, label %._crit_edge, label %.thread22

._crit_edge:                                      ; preds = %52
  %.pre = load ptr, ptr %2, align 8, !tbaa !45
  br label %53

53:                                               ; preds = %._crit_edge, %.thread
  %54 = phi ptr [ %.pre, %._crit_edge ], [ %43, %.thread ]
  %55 = getelementptr inbounds nuw i8, ptr %0, i64 24
  %56 = load ptr, ptr %55, align 8, !tbaa !10
  %57 = load ptr, ptr %1, align 8, !tbaa !45
  store ptr %57, ptr %10, align 8, !tbaa !45
  store ptr %54, ptr %11, align 8, !tbaa !45
  %58 = call noundef zeroext i1 @_ZNK4cvc58internal6theory2eq14EqualityEngine11areDisequalENS0_12NodeTemplateILb0EEES5_b(ptr noundef nonnull align 8 dereferenceable(1784) %56, ptr noundef nonnull %10, ptr noundef nonnull %11, i1 noundef zeroext false)
  br label %.thread22

.thread22:                                        ; preds = %44, %53, %.thread, %48, %28, %52, %3
  %.010 = phi i1 [ false, %3 ], [ %51, %48 ], [ false, %28 ], [ false, %44 ], [ false, %52 ], [ false, %.thread ], [ %58, %53 ]
  ret i1 %.010
}